Certificate:
    Data:
        Version: 3 (0x2)
        Serial Number:
            19:ef:77:3e:26:94:35:7d:99:3d:f5:bc:70:10:09:bf
        Signature Algorithm: sha256WithRSAEncryption
        Issuer: CN=Easy-RSA CA
        Validity
            Not Before: Oct 23 12:27:56 2020 GMT
            Not After : Jan 26 12:27:56 2023 GMT
        Subject: CN=openvpn-client1
        Subject Public Key Info:
            Public Key Algorithm: rsaEncryption
                RSA Public-Key: (2048 bit)
                Modulus:
                    00:c1:4d:8c:72:85:89:06:0c:2b:3f:cf:3f:75:f5:
                    13:4e:ee:56:ef:63:73:1c:1b:e8:39:83:ae:1a:6c:
                    36:6b:20:0c:0f:24:d3:57:99:40:5c:6d:e6:85:f8:
                    f7:33:08:2e:90:75:3c:be:7f:80:c1:51:4a:f7:7a:
                    cc:4b:2f:d0:3d:c0:cb:3a:28:cf:25:60:a6:0b:01:
                    c8:7e:1b:80:52:0d:04:bc:99:2c:ff:a6:07:a7:d2:
                    80:9a:86:3e:b7:9b:be:1c:f3:2a:df:0c:3e:04:f9:
                    50:c9:ef:32:24:b2:45:ca:c3:f7:51:fa:91:f6:d1:
                    7a:9e:d3:35:99:c0:ee:fe:56:59:71:a1:6a:57:bb:
                    8a:ab:f4:a9:c6:ef:f2:03:b4:66:92:eb:07:79:cf:
                    d0:93:23:33:51:7e:54:7c:53:8c:c9:db:12:49:22:
                    58:0c:a1:42:fa:0b:bd:51:20:0f:fe:67:21:a5:25:
                    b7:70:8a:82:bc:2d:f7:ac:12:ca:16:5d:f1:23:f0:
                    f7:b7:4c:d2:b1:56:ce:f7:5f:ca:6a:f5:24:e9:20:
                    36:f0:c7:63:a9:0d:bb:9a:b1:e4:bc:37:91:a8:b1:
                    7d:ad:77:5d:30:1c:fd:5a:15:40:3b:52:37:d7:a2:
                    53:b0:2a:07:21:e4:42:d2:07:03:c8:1b:4d:71:92:
                    d9:2b
                Exponent: 65537 (0x10001)
        X509v3 extensions:
            X509v3 Basic Constraints: 
                CA:FALSE
            X509v3 Subject Key Identifier: 
                04:C1:FE:61:3F:4A:51:21:36:15:73:C3:6A:38:C4:34:E0:A2:6C:B5
            X509v3 Authority Key Identifier: 
                keyid:3D:74:26:30:17:E4:81:BE:39:45:F1:28:60:0E:E4:BE:64:48:46:16
                DirName:/CN=Easy-RSA CA
                serial:5C:8D:FB:64:8F:97:A3:5F:98:FA:0B:49:A7:D7:80:D3:B0:25:BB:18

            X509v3 Extended Key Usage: 
                TLS Web Client Authentication
            X509v3 Key Usage: 
                Digital Signature
    Signature Algorithm: sha256WithRSAEncryption
         85:67:d4:dd:87:c6:40:f5:d7:e9:18:99:ba:2a:96:5f:7a:7b:
         4e:3a:ec:ca:c2:cb:bb:c6:58:ec:f7:c4:73:44:82:51:71:0f:
         62:3b:74:ca:8c:8c:c7:af:be:76:9b:cb:29:80:2c:06:65:52:
         8e:9a:e5:8d:6f:01:7c:95:ff:33:51:26:4b:a3:85:11:2c:03:
         df:2c:28:10:f8:15:13:9f:c5:fa:df:87:5c:bc:2c:55:1d:1b:
         f0:e6:f0:a4:78:c0:a9:f2:91:61:78:36:fe:91:37:ff:ba:d5:
         da:c5:02:66:31:a7:60:30:1f:bf:f1:09:b6:a3:45:38:74:0e:
         71:74:69:0c:29:dd:28:7b:00:40:fe:7f:eb:06:2b:f9:90:a0:
         a7:26:fb:06:32:32:74:4e:60:f6:c6:e5:0c:ee:65:e0:89:a2:
         a8:9e:6c:b7:4a:38:1e:59:d1:03:95:96:95:c3:ae:0f:16:53:
         da:b1:be:69:d2:71:9a:fa:9d:0a:eb:a9:fa:5d:23:91:84:45:
         f4:e4:f3:8d:6e:c1:d1:7a:10:6f:27:61:79:3d:d6:de:cb:e7:
         34:31:8b:5a:b0:fe:7a:e0:8a:1e:60:9b:de:a4:14:05:e3:ac:
         99:4f:50:84:b1:1b:2c:c8:11:86:e4:0e:12:85:1a:0f:c8:e7:
         bb:22:02:34
-----BEGIN CERTIFICATE-----
MIIDXTCCAkWgAwIBAgIQGe93PiaUNX2ZPfW8cBAJvzANBgkqhkiG9w0BAQsFADAW
MRQwEgYDVQQDDAtFYXN5LVJTQSBDQTAeFw0yMDEwMjMxMjI3NTZaFw0yMzAxMjYx
MjI3NTZaMBoxGDAWBgNVBAMMD29wZW52cG4tY2xpZW50MTCCASIwDQYJKoZIhvcN
AQEBBQADggEPADCCAQoCggEBAMFNjHKFiQYMKz/PP3X1E07uVu9jcxwb6DmDrhps
NmsgDA8k01eZQFxt5oX49zMILpB1PL5/gMFRSvd6zEsv0D3AyzoozyVgpgsByH4b
gFINBLyZLP+mB6fSgJqGPrebvhzzKt8MPgT5UMnvMiSyRcrD91H6kfbRep7TNZnA
7v5WWXGhale7iqv0qcbv8gO0ZpLrB3nP0JMjM1F+VHxTjMnbEkkiWAyhQvoLvVEg
D/5nIaUlt3CKgrwt96wSyhZd8SPw97dM0rFWzvdfymr1JOkgNvDHY6kNu5qx5Lw3
kaixfa13XTAc/VoVQDtSN9eiU7AqByHkQtIHA8gbTXGS2SsCAwEAAaOBojCBnzAJ
BgNVHRMEAjAAMB0GA1UdDgQWBBQEwf5hP0pRITYVc8NqOMQ04KJstTBRBgNVHSME
SjBIgBQ9dCYwF+SBvjlF8ShgDuS+ZEhGFqEapBgwFjEUMBIGA1UEAwwLRWFzeS1S
U0EgQ0GCFFyN+2SPl6NfmPoLSafXgNOwJbsYMBMGA1UdJQQMMAoGCCsGAQUFBwMC
MAsGA1UdDwQEAwIHgDANBgkqhkiG9w0BAQsFAAOCAQEAhWfU3YfGQPXX6RiZuiqW
X3p7TjrsysLLu8ZY7PfEc0SCUXEPYjt0yoyMx6++dpvLKYAsBmVSjprljW8BfJX/
M1EmS6OFESwD3ywoEPgVE5/F+t+HXLwsVR0b8ObwpHjAqfKRYXg2/pE3/7rV2sUC
ZjGnYDAfv/EJtqNFOHQOcXRpDCndKHsAQP5/6wYr+ZCgpyb7BjIydE5g9sblDO5l
4ImiqJ5st0o4HlnRA5WWlcOuDxZT2rG+adJxmvqdCuup+l0jkYRF9OTzjW7B0XoQ
bydheT3W3svnNDGLWrD+euCKHmCb3qQUBeOsmU9QhLEbLMgRhuQOEoUaD8jnuyIC
NA==
-----END CERTIFICATE-----
