Certificate:
    Data:
        Version: 3 (0x2)
        Serial Number:
            45:49:d2:0e:a5:d3:5c:6f:6c:68:af:9e:53:8a:2f:df
        Signature Algorithm: sha256WithRSAEncryption
        Issuer: CN=Easy-RSA CA
        Validity
            Not Before: Oct 23 12:26:21 2020 GMT
            Not After : Jan 26 12:26:21 2023 GMT
        Subject: CN=openvpn
        Subject Public Key Info:
            Public Key Algorithm: rsaEncryption
                RSA Public-Key: (2048 bit)
                Modulus:
                    00:b9:ff:f9:d5:21:ba:da:d7:de:0d:9a:25:f8:0c:
                    60:a6:ea:6d:d1:6a:be:55:ca:eb:21:12:e5:ea:ba:
                    0d:61:58:23:9f:c1:5e:98:27:ec:30:5b:1c:fc:36:
                    20:04:ae:32:34:69:ad:fc:19:2c:e8:94:34:ba:29:
                    65:b2:89:86:32:5d:2f:d4:3b:3e:57:46:67:17:8b:
                    8f:f8:dd:c5:8e:70:f7:09:47:59:81:25:cb:3d:ec:
                    5b:38:be:6d:7b:f6:51:7c:9d:8d:d0:c4:b2:fd:ee:
                    bf:19:20:69:7d:03:cc:3b:4e:00:f4:d4:5d:09:6c:
                    ba:9d:4f:0a:96:6b:a8:dd:33:a0:01:d8:63:44:cf:
                    4a:ff:69:ee:86:d1:53:ba:1b:63:5f:a0:f7:6a:b9:
                    fe:7b:f5:dc:3f:f4:09:13:e0:a5:f1:c8:8d:44:3a:
                    8c:89:00:63:dd:bb:d0:31:c5:6b:c6:76:17:34:39:
                    ca:b1:c8:c0:c1:a2:03:29:e3:bd:38:b4:00:4b:93:
                    05:21:a4:b1:da:c7:fd:9d:79:d2:19:aa:85:5f:19:
                    60:b7:b5:c9:43:cd:bb:ba:35:3f:00:65:76:6d:1d:
                    89:b3:bf:34:62:8f:4e:98:3e:2f:af:2a:f8:3b:da:
                    57:16:2f:91:9b:3f:13:1c:ee:5c:10:9a:89:86:e2:
                    01:5f
                Exponent: 65537 (0x10001)
        X509v3 extensions:
            X509v3 Basic Constraints: 
                CA:FALSE
            X509v3 Subject Key Identifier: 
                8B:7B:2D:DE:45:E1:FE:5C:CB:73:54:D6:22:71:02:23:07:C0:39:FB
            X509v3 Authority Key Identifier: 
                keyid:3D:74:26:30:17:E4:81:BE:39:45:F1:28:60:0E:E4:BE:64:48:46:16
                DirName:/CN=Easy-RSA CA
                serial:5C:8D:FB:64:8F:97:A3:5F:98:FA:0B:49:A7:D7:80:D3:B0:25:BB:18

            X509v3 Extended Key Usage: 
                TLS Web Server Authentication
            X509v3 Key Usage: 
                Digital Signature, Key Encipherment
            X509v3 Subject Alternative Name: 
                DNS:openvpn
    Signature Algorithm: sha256WithRSAEncryption
         54:57:ab:3e:38:2c:f8:12:ba:84:61:e3:8d:96:73:8b:23:23:
         25:2f:de:55:6c:ab:af:d4:b1:5b:c1:9a:27:e3:8d:ee:26:52:
         cd:a5:3d:2b:41:bd:c3:77:d1:53:11:8e:86:e0:65:b2:89:f4:
         6a:67:43:00:8e:d7:a0:66:2a:e3:81:31:a3:1d:3f:8c:fd:3d:
         e3:9b:0a:d1:49:29:8b:d7:88:7b:a1:64:c3:9f:95:e4:19:25:
         c9:8d:d2:cb:7e:84:b6:7e:c1:08:d0:6a:f7:56:c0:79:99:26:
         c1:a3:c4:a5:b1:2b:82:6c:8a:cb:ec:8a:d7:52:bf:29:16:65:
         3f:fa:ec:a5:ae:76:d2:fa:9b:8e:8b:a1:66:80:f2:54:7b:ea:
         60:a2:06:1b:a0:1f:85:50:e3:40:94:d5:7e:45:6f:d8:fb:ab:
         ae:63:1f:3d:3e:16:4a:92:a0:dd:da:52:0e:8e:44:c5:e1:52:
         50:2f:20:59:62:94:41:ff:24:b3:c4:4e:32:83:a4:e5:fb:e8:
         16:a5:e8:10:5a:64:e3:2a:dd:76:0b:d0:1f:8e:39:69:f8:c7:
         d8:c7:8a:2d:29:71:54:5e:45:4e:ac:92:ec:08:25:d1:30:00:
         b0:0b:70:4c:72:3e:52:b0:8f:76:ea:96:a0:3e:a4:3f:db:a0:
         f7:6a:e1:98
-----BEGIN CERTIFICATE-----
MIIDaTCCAlGgAwIBAgIQRUnSDqXTXG9saK+eU4ov3zANBgkqhkiG9w0BAQsFADAW
MRQwEgYDVQQDDAtFYXN5LVJTQSBDQTAeFw0yMDEwMjMxMjI2MjFaFw0yMzAxMjYx
MjI2MjFaMBIxEDAOBgNVBAMMB29wZW52cG4wggEiMA0GCSqGSIb3DQEBAQUAA4IB
DwAwggEKAoIBAQC5//nVIbra194NmiX4DGCm6m3Rar5VyushEuXqug1hWCOfwV6Y
J+wwWxz8NiAErjI0aa38GSzolDS6KWWyiYYyXS/UOz5XRmcXi4/43cWOcPcJR1mB
Jcs97Fs4vm179lF8nY3QxLL97r8ZIGl9A8w7TgD01F0JbLqdTwqWa6jdM6AB2GNE
z0r/ae6G0VO6G2NfoPdquf579dw/9AkT4KXxyI1EOoyJAGPdu9AxxWvGdhc0Ocqx
yMDBogMp4704tABLkwUhpLHax/2dedIZqoVfGWC3tclDzbu6NT8AZXZtHYmzvzRi
j06YPi+vKvg72lcWL5GbPxMc7lwQmomG4gFfAgMBAAGjgbYwgbMwCQYDVR0TBAIw
ADAdBgNVHQ4EFgQUi3st3kXh/lzLc1TWInECIwfAOfswUQYDVR0jBEowSIAUPXQm
MBfkgb45RfEoYA7kvmRIRhahGqQYMBYxFDASBgNVBAMMC0Vhc3ktUlNBIENBghRc
jftkj5ejX5j6C0mn14DTsCW7GDATBgNVHSUEDDAKBggrBgEFBQcDATALBgNVHQ8E
BAMCBaAwEgYDVR0RBAswCYIHb3BlbnZwbjANBgkqhkiG9w0BAQsFAAOCAQEAVFer
Pjgs+BK6hGHjjZZziyMjJS/eVWyrr9SxW8GaJ+ON7iZSzaU9K0G9w3fRUxGOhuBl
son0amdDAI7XoGYq44Exox0/jP0945sK0Ukpi9eIe6Fkw5+V5BklyY3Sy36Etn7B
CNBq91bAeZkmwaPEpbErgmyKy+yK11K/KRZlP/rspa520vqbjouhZoDyVHvqYKIG
G6AfhVDjQJTVfkVv2PurrmMfPT4WSpKg3dpSDo5ExeFSUC8gWWKUQf8ks8ROMoOk
5fvoFqXoEFpk4yrddgvQH445afjH2MeKLSlxVF5FTqyS7Agl0TAAsAtwTHI+UrCP
duqWoD6kP9ug92rhmA==
-----END CERTIFICATE-----
